(dp0
S'METTS MARK'
p1
(dp2
S'bonus'
p3
F600000.0
sS'exercised_stock_options'
p4
F0.0
sS'expenses'
p5
F94299.0
sS'poi'
p6
I00
ssS'BAXTER JOHN C'
p7
(dp8
g3
F1200000.0
sg4
F6680544.0
sg5
F11200.0
sg6
I00
ssS'ELLIOTT STEVEN'
p9
(dp10
g3
F350000.0
sg4
F4890344.0
sg5
F78552.0
sg6
I00
ssS'CORDES WILLIAM R'
p11
(dp12
g3
F0.0
sg4
F651850.0
sg5
F0.0
sg6
I00
ssS'HANNON KEVIN P'
p13
(dp14
g3
F1500000.0
sg4
F5538001.0
sg5
F34039.0
sg6
I01
ssS'MORDAUNT KRISTINA M'
p15
(dp16
g3
F325000.0
sg4
F0.0
sg5
F35018.0
sg6
I00
ssS'MEYER ROCKFORD G'
p17
(dp18
g3
F0.0
sg4
F493489.0
sg5
F0.0
sg6
I00
ssS'MCMAHON JEFFREY'
p19
(dp20
g3
F2600000.0
sg4
F1104054.0
sg5
F137108.0
sg6
I00
ssS'HORTON STANLEY C'
p21
(dp22
g3
F0.0
sg4
F5210569.0
sg5
F0.0
sg6
I00
ssS'PIPER GREGORY F'
p23
(dp24
g3
F400000.0
sg4
F880290.0
sg5
F43057.0
sg6
I00
ssS'HUMPHREY GENE E'
p25
(dp26
g3
F0.0
sg4
F2282768.0
sg5
F4994.0
sg6
I00
ssS'UMANOFF ADAM S'
p27
(dp28
g3
F788750.0
sg4
F0.0
sg5
F53122.0
sg6
I00
ssS'BLACHMAN JEREMY M'
p29
(dp30
g3
F850000.0
sg4
F765313.0
sg5
F84208.0
sg6
I00
ssS'SUNDE MARTIN'
p31
(dp32
g3
F700000.0
sg4
F0.0
sg5
F0.0
sg6
I00
ssS'GIBBS DANA R'
p33
(dp34
g3
F0.0
sg4
F2218275.0
sg5
F0.0
sg6
I00
ssS'LOWRY CHARLES P'
p35
(dp36
g3
F0.0
sg4
F372205.0
sg5
F0.0
sg6
I00
ssS'COLWELL WESLEY'
p37
(dp38
g3
F1200000.0
sg4
F0.0
sg5
F16514.0
sg6
I01
ssS'MULLER MARK S'
p39
(dp40
g3
F1100000.0
sg4
F1056320.0
sg5
F0.0
sg6
I00
ssS'JACKSON CHARLENE R'
p41
(dp42
g3
F250000.0
sg4
F185063.0
sg5
F10181.0
sg6
I00
ssS'WESTFAHL RICHARD K'
p43
(dp44
g3
F0.0
sg4
F0.0
sg5
F51870.0
sg6
I00
ssS'WALTERS GARETH W'
p45
(dp46
g3
F0.0
sg4
F1030329.0
sg5
F33785.0
sg6
I00
ssS'WALLS JR ROBERT H'
p47
(dp48
g3
F850000.0
sg4
F4346544.0
sg5
F50936.0
sg6
I00
ssS'KITCHEN LOUISE'
p49
(dp50
g3
F3100000.0
sg4
F81042.0
sg5
F5774.0
sg6
I00
ssS'CHAN RONNIE'
p51
(dp52
g3
F0.0
sg4
F0.0
sg5
F0.0
sg6
I00
ssS'BELFER ROBERT'
p53
(dp54
g3
F0.0
sg4
F3285.0
sg5
F0.0
sg6
I00
ssS'SHANKMAN JEFFREY A'
p55
(dp56
g3
F2000000.0
sg4
F1441898.0
sg5
F178979.0
sg6
I00
ssS'WODRASKA JOHN'
p57
(dp58
g3
F0.0
sg4
F0.0
sg5
F0.0
sg6
I00
ssS'BERGSIEKER RICHARD P'
p59
(dp60
g3
F250000.0
sg4
F0.0
sg5
F59175.0
sg6
I00
ssS'URQUHART JOHN A'
p61
(dp62
g3
F0.0
sg4
F0.0
sg5
F228656.0
sg6
I00
ssS'BIBI PHILIPPE A'
p63
(dp64
g3
F1000000.0
sg4
F1465734.0
sg5
F38559.0
sg6
I00
ssS'PIRO JIM'
p65
(dp66
g3
F0.0
sg4
F0.0
sg5
F0.0
sg6
I00
ssS'RIEKER PAULA H'
p67
(dp68
g3
F700000.0
sg4
F1635238.0
sg5
F33271.0
sg6
I01
ssS'WHALEY DAVID A'
p69
(dp70
g3
F0.0
sg4
F98718.0
sg5
F0.0
sg6
I00
ssS'BECK SALLY W'
p71
(dp72
g3
F700000.0
sg4
F0.0
sg5
F37172.0
sg6
I00
ssS'HAUG DAVID L'
p73
(dp74
g3
F0.0
sg4
F0.0
sg5
F475.0
sg6
I00
ssS'ECHOLS JOHN B'
p75
(dp76
g3
F200000.0
sg4
F601438.0
sg5
F21530.0
sg6
I00
ssS'MENDELSOHN JOHN'
p77
(dp78
g3
F0.0
sg4
F0.0
sg5
F148.0
sg6
I00
ssS'HICKERSON GARY J'
p79
(dp80
g3
F1700000.0
sg4
F0.0
sg5
F98849.0
sg6
I00
ssS'CLINE KENNETH W'
p81
(dp82
g3
F0.0
sg4
F0.0
sg5
F0.0
sg6
I00
ssS'LEWIS RICHARD'
p83
(dp84
g3
F0.0
sg4
F850477.0
sg5
F0.0
sg6
I00
ssS'HAYES ROBERT E'
p85
(dp86
g3
F0.0
sg4
F0.0
sg5
F0.0
sg6
I00
ssS'KOPPER MICHAEL J'
p87
(dp88
g3
F800000.0
sg4
F0.0
sg5
F118134.0
sg6
I01
ssS'LEFF DANIEL P'
p89
(dp90
g3
F1000000.0
sg4
F0.0
sg5
F0.0
sg6
I00
ssS'LAVORATO JOHN J'
p91
(dp92
g3
F8000000.0
sg4
F4158995.0
sg5
F49537.0
sg6
I00
ssS'BERBERIAN DAVID'
p93
(dp94
g3
F0.0
sg4
F1624396.0
sg5
F11892.0
sg6
I00
ssS'DETMERING TIMOTHY J'
p95
(dp96
g3
F425000.0
sg4
F2027865.0
sg5
F52255.0
sg6
I00
ssS'WAKEHAM JOHN'
p97
(dp98
g3
F0.0
sg4
F0.0
sg5
F103773.0
sg6
I00
ssS'POWERS WILLIAM'
p99
(dp100
g3
F0.0
sg4
F0.0
sg5
F0.0
sg6
I00
ssS'GOLD JOSEPH'
p101
(dp102
g3
F750000.0
sg4
F436515.0
sg5
F0.0
sg6
I00
ssS'BANNANTINE JAMES M'
p103
(dp104
g3
F0.0
sg4
F4046157.0
sg5
F56301.0
sg6
I00
ssS'DUNCAN JOHN H'
p105
(dp106
g3
F0.0
sg4
F371750.0
sg5
F0.0
sg6
I00
ssS'SHAPIRO RICHARD S'
p107
(dp108
g3
F650000.0
sg4
F607837.0
sg5
F137767.0
sg6
I00
ssS'SHERRIFF JOHN R'
p109
(dp110
g3
F1500000.0
sg4
F1835558.0
sg5
F0.0
sg6
I00
ssS'SHELBY REX'
p111
(dp112
g3
F200000.0
sg4
F1624396.0
sg5
F22884.0
sg6
I01
ssS'LEMAISTRE CHARLES'
p113
(dp114
g3
F0.0
sg4
F412878.0
sg5
F0.0
sg6
I00
ssS'DEFFNER JOSEPH M'
p115
(dp116
g3
F600000.0
sg4
F17378.0
sg5
F41626.0
sg6
I00
ssS'KISHKILL JOSEPH G'
p117
(dp118
g3
F0.0
sg4
F0.0
sg5
F116335.0
sg6
I00
ssS'WHALLEY LAWRENCE G'
p119
(dp120
g3
F3000000.0
sg4
F3282960.0
sg5
F57838.0
sg6
I00
ssS'MCCARTY DANNY J'
p121
(dp122
g3
F0.0
sg4
F664375.0
sg5
F0.0
sg6
I00
ssS'MCCONNELL MICHAEL S'
p123
(dp124
g3
F1100000.0
sg4
F1623010.0
sg5
F81364.0
sg6
I00
ssS'DELAINEY DAVID W'
p125
(dp126
g3
F3000000.0
sg4
F2291113.0
sg5
F86174.0
sg6
I01
ssS'SULLIVAN-SHAKLOVITZ COLLEEN'
p127
(dp128
g3
F100000.0
sg4
F1362375.0
sg5
F0.0
sg6
I00
ssS'WROBEL BRUCE'
p129
(dp130
g3
F0.0
sg4
F139130.0
sg5
F0.0
sg6
I00
ssS'LINDHOLM TOD A'
p131
(dp132
g3
F200000.0
sg4
F2549361.0
sg5
F57727.0
sg6
I00
ssS'MEYER JEROME J'
p133
(dp134
g3
F0.0
sg4
F0.0
sg5
F2151.0
sg6
I00
ssS'LAY KENNETH L'
p135
(dp136
g3
F7000000.0
sg4
F34348384.0
sg5
F99832.0
sg6
I01
ssS'BUTTS ROBERT H'
p137
(dp138
g3
F750000.0
sg4
F0.0
sg5
F9410.0
sg6
I00
ssS'OLSON CINDY K'
p139
(dp140
g3
F750000.0
sg4
F1637034.0
sg5
F63791.0
sg6
I00
ssS'MCDONALD REBECCA'
p141
(dp142
g3
F0.0
sg4
F757301.0
sg5
F0.0
sg6
I00
ssS'CUMBERLAND MICHAEL S'
p143
(dp144
g3
F325000.0
sg4
F0.0
sg5
F22344.0
sg6
I00
ssS'GAHN ROBERT S'
p145
(dp146
g3
F509870.0
sg4
F83237.0
sg5
F50080.0
sg6
I00
ssS'MCCLELLAN GEORGE'
p147
(dp148
g3
F900000.0
sg4
F506765.0
sg5
F228763.0
sg6
I00
ssS'HERMANN ROBERT J'
p149
(dp150
g3
F700000.0
sg4
F187500.0
sg5
F48357.0
sg6
I00
ssS'SCRIMSHAW MATTHEW'
p151
(dp152
g3
F0.0
sg4
F759557.0
sg5
F0.0
sg6
I00
ssS'GATHMANN WILLIAM D'
p153
(dp154
g3
F0.0
sg4
F1753766.0
sg5
F0.0
sg6
I00
ssS'HAEDICKE MARK E'
p155
(dp156
g3
F1150000.0
sg4
F608750.0
sg5
F76169.0
sg6
I00
ssS'BOWEN JR RAYMOND M'
p157
(dp158
g3
F1350000.0
sg4
F0.0
sg5
F65907.0
sg6
I01
ssS'GILLIS JOHN'
p159
(dp160
g3
F0.0
sg4
F9803.0
sg5
F0.0
sg6
I00
ssS'FITZGERALD JAY L'
p161
(dp162
g3
F350000.0
sg4
F664461.0
sg5
F23870.0
sg6
I00
ssS'MORAN MICHAEL P'
p163
(dp164
g3
F0.0
sg4
F59539.0
sg5
F0.0
sg6
I00
ssS'REDMOND BRIAN L'
p165
(dp166
g3
F0.0
sg4
F7509039.0
sg5
F14689.0
sg6
I00
ssS'BAZELIDES PHILIP J'
p167
(dp168
g3
F0.0
sg4
F1599641.0
sg5
F0.0
sg6
I00
ssS'BELDEN TIMOTHY N'
p169
(dp170
g3
F5249999.0
sg4
F953136.0
sg5
F17355.0
sg6
I01
ssS'DURAN WILLIAM D'
p171
(dp172
g3
F750000.0
sg4
F1451869.0
sg5
F25785.0
sg6
I00
ssS'THORN TERENCE H'
p173
(dp174
g3
F0.0
sg4
F4452476.0
sg5
F46145.0
sg6
I00
ssS'FASTOW ANDREW S'
p175
(dp176
g3
F1300000.0
sg4
F0.0
sg5
F55921.0
sg6
I01
ssS'FOY JOE'
p177
(dp178
g3
F0.0
sg4
F343434.0
sg5
F0.0
sg6
I00
ssS'CALGER CHRISTOPHER F'
p179
(dp180
g3
F1250000.0
sg4
F0.0
sg5
F35818.0
sg6
I01
ssS'RICE KENNETH D'
p181
(dp182
g3
F1750000.0
sg4
F19794175.0
sg5
F46950.0
sg6
I01
ssS'KAMINSKI WINCENTY J'
p183
(dp184
g3
F400000.0
sg4
F850010.0
sg5
F83585.0
sg6
I00
ssS'LOCKHART EUGENE E'
p185
(dp186
g3
F0.0
sg4
F0.0
sg5
F0.0
sg6
I00
ssS'COX DAVID'
p187
(dp188
g3
F800000.0
sg4
F117551.0
sg5
F27861.0
sg6
I00
ssS'OVERDYKE JR JERE C'
p189
(dp190
g3
F0.0
sg4
F5266578.0
sg5
F18834.0
sg6
I00
ssS'PEREIRA PAULO V. FERRAZ'
p191
(dp192
g3
F0.0
sg4
F0.0
sg5
F27942.0
sg6
I00
ssS'STABLER FRANK'
p193
(dp194
g3
F500000.0
sg4
F0.0
sg5
F16514.0
sg6
I00
ssS'SKILLING JEFFREY K'
p195
(dp196
g3
F5600000.0
sg4
F19250000.0
sg5
F29336.0
sg6
I01
ssS'BLAKE JR. NORMAN P'
p197
(dp198
g3
F0.0
sg4
F0.0
sg5
F1279.0
sg6
I00
ssS'SHERRICK JEFFREY B'
p199
(dp200
g3
F0.0
sg4
F1426469.0
sg5
F0.0
sg6
I00
ssS'PRENTICE JAMES'
p201
(dp202
g3
F0.0
sg4
F886231.0
sg5
F0.0
sg6
I00
ssS'GRAY RODNEY'
p203
(dp204
g3
F0.0
sg4
F0.0
sg5
F0.0
sg6
I00
ssS'PICKERING MARK R'
p205
(dp206
g3
F300000.0
sg4
F28798.0
sg5
F31653.0
sg6
I00
ssS'NOLES JAMES L'
p207
(dp208
g3
F0.0
sg4
F0.0
sg5
F0.0
sg6
I00
ssS'KEAN STEVEN J'
p209
(dp210
g3
F1000000.0
sg4
F2022048.0
sg5
F41953.0
sg6
I00
ssS'FOWLER PEGGY'
p211
(dp212
g3
F0.0
sg4
F1324578.0
sg5
F0.0
sg6
I00
ssS'WASAFF GEORGE'
p213
(dp214
g3
F325000.0
sg4
F1668260.0
sg5
F0.0
sg6
I00
ssS'WHITE JR THOMAS E'
p215
(dp216
g3
F450000.0
sg4
F1297049.0
sg5
F81353.0
sg6
I00
ssS'CHRISTODOULOU DIOMEDES'
p217
(dp218
g3
F0.0
sg4
F5127155.0
sg5
F0.0
sg6
I00
ssS'ALLEN PHILLIP K'
p219
(dp220
g3
F4175000.0
sg4
F1729541.0
sg5
F13868.0
sg6
I00
ssS'SHARP VICTORIA T'
p221
(dp222
g3
F600000.0
sg4
F281073.0
sg5
F116337.0
sg6
I00
ssS'JAEDICKE ROBERT'
p223
(dp224
g3
F0.0
sg4
F431750.0
sg5
F0.0
sg6
I00
ssS'WINOKUR JR. HERBERT S'
p225
(dp226
g3
F0.0
sg4
F0.0
sg5
F1413.0
sg6
I00
ssS'BROWN MICHAEL'
p227
(dp228
g3
F0.0
sg4
F0.0
sg5
F49288.0
sg6
I00
ssS'BADUM JAMES P'
p229
(dp230
g3
F0.0
sg4
F257817.0
sg5
F3486.0
sg6
I00
ssS'HUGHES JAMES A'
p231
(dp232
g3
F0.0
sg4
F754966.0
sg5
F0.0
sg6
I00
ssS'REYNOLDS LAWRENCE'
p233
(dp234
g3
F100000.0
sg4
F4160672.0
sg5
F8409.0
sg6
I00
ssS'DIMICHELE RICHARD G'
p235
(dp236
g3
F1000000.0
sg4
F8191755.0
sg5
F35812.0
sg6
I00
ssS'BHATNAGAR SANJAY'
p237
(dp238
g3
F0.0
sg4
F2604490.0
sg5
F0.0
sg6
I00
ssS'CARTER REBECCA C'
p239
(dp240
g3
F300000.0
sg4
F0.0
sg5
F0.0
sg6
I00
ssS'BUCHANAN HAROLD G'
p241
(dp242
g3
F500000.0
sg4
F825464.0
sg5
F600.0
sg6
I00
ssS'YEAP SOON'
p243
(dp244
g3
F0.0
sg4
F192758.0
sg5
F55097.0
sg6
I00
ssS'MURRAY JULIA H'
p245
(dp246
g3
F400000.0
sg4
F400478.0
sg5
F57580.0
sg6
I00
ssS'GARLAND C KEVIN'
p247
(dp248
g3
F850000.0
sg4
F636246.0
sg5
F48405.0
sg6
I00
ssS'DODSON KEITH'
p249
(dp250
g3
F70000.0
sg4
F0.0
sg5
F28164.0
sg6
I00
ssS'YEAGER F SCOTT'
p251
(dp252
g3
F0.0
sg4
F8308552.0
sg5
F53947.0
sg6
I01
ssS'HIRKO JOSEPH'
p253
(dp254
g3
F0.0
sg4
F30766064.0
sg5
F77978.0
sg6
I01
ssS'DIETRICH JANET R'
p255
(dp256
g3
F600000.0
sg4
F1550019.0
sg5
F3475.0
sg6
I00
ssS'DERRICK JR. JAMES V'
p257
(dp258
g3
F800000.0
sg4
F8831913.0
sg5
F51124.0
sg6
I00
ssS'FREVERT MARK A'
p259
(dp260
g3
F2000000.0
sg4
F10433518.0
sg5
F86987.0
sg6
I00
ssS'PAI LOU L'
p261
(dp262
g3
F1000000.0
sg4
F15364167.0
sg5
F32047.0
sg6
I00
ssS'BAY FRANKLIN R'
p263
(dp264
g3
F400000.0
sg4
F0.0
sg5
F129142.0
sg6
I00
ssS'HAYSLETT RODERICK J'
p265
(dp266
g3
F0.0
sg4
F0.0
sg5
F0.0
sg6
I00
ssS'FUGH JOHN L'
p267
(dp268
g3
F0.0
sg4
F176378.0
sg5
F0.0
sg6
I00
ssS'FALLON JAMES B'
p269
(dp270
g3
F2500000.0
sg4
F940257.0
sg5
F95924.0
sg6
I00
ssS'KOENIG MARK E'
p271
(dp272
g3
F700000.0
sg4
F671737.0
sg5
F127017.0
sg6
I01
ssS'SAVAGE FRANK'
p273
(dp274
g3
F0.0
sg4
F0.0
sg5
F0.0
sg6
I00
ssS'IZZO LAWRENCE L'
p275
(dp276
g3
F0.0
sg4
F2165172.0
sg5
F28093.0
sg6
I00
ssS'TILNEY ELIZABETH A'
p277
(dp278
g3
F300000.0
sg4
F591250.0
sg5
F0.0
sg6
I00
ssS'MARTIN AMANDA K'
p279
(dp280
g3
F0.0
sg4
F2070306.0
sg5
F8211.0
sg6
I00
ssS'BUY RICHARD B'
p281
(dp282
g3
F900000.0
sg4
F2542813.0
sg5
F0.0
sg6
I00
ssS'GRAMM WENDY L'
p283
(dp284
g3
F0.0
sg4
F0.0
sg5
F0.0
sg6
I00
ssS'CAUSEY RICHARD A'
p285
(dp286
g3
F1000000.0
sg4
F0.0
sg5
F30674.0
sg6
I01
ssS'TAYLOR MITCHELL S'
p287
(dp288
g3
F600000.0
sg4
F3181250.0
sg5
F0.0
sg6
I00
ssS'DONAHUE JR JEFFREY M'
p289
(dp290
g3
F800000.0
sg4
F765920.0
sg5
F96268.0
sg6
I00
ssS'GLISAN JR BEN F'
p291
(dp292
g3
F600000.0
sg4
F384728.0
sg5
F125978.0
sg6
I01
ss.