(dp0
S'METTS MARK'
p1
(dp2
S'bonus'
p3
F600000.0
sS'exercised_stock_options'
p4
F0.0
sS'expenses'
p5
F94299.0
sS'pct_poi_messages'
p6
F4.6650717703349285
sS'poi'
p7
I00
ssS'BAXTER JOHN C'
p8
(dp9
g3
F1200000.0
sg4
F6680544.0
sg5
F11200.0
sg6
F0.0
sg7
I00
ssS'ELLIOTT STEVEN'
p10
(dp11
g3
F350000.0
sg4
F4890344.0
sg5
F78552.0
sg6
F0.0
sg7
I00
ssS'CORDES WILLIAM R'
p12
(dp13
g3
F0.0
sg4
F651850.0
sg5
F0.0
sg6
F1.2886597938144329
sg7
I00
ssS'HANNON KEVIN P'
p14
(dp15
g3
F1500000.0
sg4
F5538001.0
sg5
F34039.0
sg6
F4.921077065923862
sg7
I01
ssS'MORDAUNT KRISTINA M'
p16
(dp17
g3
F325000.0
sg4
F0.0
sg5
F35018.0
sg6
F0.0
sg7
I00
ssS'MEYER ROCKFORD G'
p18
(dp19
g3
F0.0
sg4
F493489.0
sg5
F0.0
sg6
F0.0
sg7
I00
ssS'MCMAHON JEFFREY'
p20
(dp21
g3
F2600000.0
sg4
F1104054.0
sg5
F137108.0
sg6
F3.495630461922597
sg7
I00
ssS'HORTON STANLEY C'
p22
(dp23
g3
F0.0
sg4
F5210569.0
sg5
F0.0
sg6
F1.7236342389716621
sg7
I00
ssS'PIPER GREGORY F'
p24
(dp25
g3
F400000.0
sg4
F880290.0
sg5
F43057.0
sg6
F7.465753424657534
sg7
I00
ssS'HUMPHREY GENE E'
p26
(dp27
g3
F0.0
sg4
F2282768.0
sg5
F4994.0
sg6
F18.620689655172416
sg7
I00
ssS'UMANOFF ADAM S'
p28
(dp29
g3
F788750.0
sg4
F0.0
sg5
F53122.0
sg6
F9.30232558139535
sg7
I00
ssS'BLACHMAN JEREMY M'
p30
(dp31
g3
F850000.0
sg4
F765313.0
sg5
F84208.0
sg6
F1.0847730012053034
sg7
I00
ssS'SUNDE MARTIN'
p32
(dp33
g3
F700000.0
sg4
F0.0
sg5
F0.0
sg6
F1.86219739292365
sg7
I00
ssS'GIBBS DANA R'
p34
(dp35
g3
F0.0
sg4
F2218275.0
sg5
F0.0
sg6
F0.0
sg7
I00
ssS'LOWRY CHARLES P'
p36
(dp37
g3
F0.0
sg4
F372205.0
sg5
F0.0
sg6
F0.0
sg7
I00
ssS'COLWELL WESLEY'
p38
(dp39
g3
F1200000.0
sg4
F0.0
sg5
F16514.0
sg6
F13.959955506117907
sg7
I01
ssS'MULLER MARK S'
p40
(dp41
g3
F1100000.0
sg4
F1056320.0
sg5
F0.0
sg6
F7.894736842105263
sg7
I00
ssS'JACKSON CHARLENE R'
p42
(dp43
g3
F250000.0
sg4
F185063.0
sg5
F10181.0
sg6
F14.012738853503185
sg7
I00
ssS'WESTFAHL RICHARD K'
p44
(dp45
g3
F0.0
sg4
F0.0
sg5
F51870.0
sg6
F0.0
sg7
I00
ssS'WALTERS GARETH W'
p46
(dp47
g3
F0.0
sg4
F1030329.0
sg5
F33785.0
sg6
F0.0
sg7
I00
ssS'WALLS JR ROBERT H'
p48
(dp49
g3
F850000.0
sg4
F4346544.0
sg5
F50936.0
sg6
F2.08078335373317
sg7
I00
ssS'KITCHEN LOUISE'
p50
(dp51
g3
F3100000.0
sg4
F81042.0
sg5
F5774.0
sg6
F4.435363301106349
sg7
I00
ssS'CHAN RONNIE'
p52
(dp53
g3
F0.0
sg4
F0.0
sg5
F0.0
sg6
F0.0
sg7
I00
ssS'BELFER ROBERT'
p54
(dp55
g3
F0.0
sg4
F3285.0
sg5
F0.0
sg6
F0.0
sg7
I00
ssS'SHANKMAN JEFFREY A'
p56
(dp57
g3
F2000000.0
sg4
F1441898.0
sg5
F178979.0
sg6
F2.9989833954591663
sg7
I00
ssS'WODRASKA JOHN'
p58
(dp59
g3
F0.0
sg4
F0.0
sg5
F0.0
sg6
F0.0
sg7
I00
ssS'BERGSIEKER RICHARD P'
p60
(dp61
g3
F250000.0
sg4
F0.0
sg5
F59175.0
sg6
F0.904977375565611
sg7
I00
ssS'URQUHART JOHN A'
p62
(dp63
g3
F0.0
sg4
F0.0
sg5
F228656.0
sg6
F0.0
sg7
I00
ssS'BIBI PHILIPPE A'
p64
(dp65
g3
F1000000.0
sg4
F1465734.0
sg5
F38559.0
sg6
F1.8822100789313905
sg7
I00
ssS'PIRO JIM'
p66
(dp67
g3
F0.0
sg4
F0.0
sg5
F0.0
sg6
F1.3513513513513513
sg7
I00
ssS'RIEKER PAULA H'
p68
(dp69
g3
F700000.0
sg4
F1635238.0
sg5
F33271.0
sg6
F5.886524822695035
sg7
I01
ssS'WHALEY DAVID A'
p70
(dp71
g3
F0.0
sg4
F98718.0
sg5
F0.0
sg6
F0.0
sg7
I00
ssS'BECK SALLY W'
p72
(dp73
g3
F700000.0
sg4
F0.0
sg5
F37172.0
sg6
F4.546234345513811
sg7
I00
ssS'HAUG DAVID L'
p74
(dp75
g3
F0.0
sg4
F0.0
sg5
F475.0
sg6
F1.8581081081081081
sg7
I00
ssS'ECHOLS JOHN B'
p76
(dp77
g3
F200000.0
sg4
F601438.0
sg5
F21530.0
sg6
F0.0
sg7
I00
ssS'MENDELSOHN JOHN'
p78
(dp79
g3
F0.0
sg4
F0.0
sg5
F148.0
sg6
F0.0
sg7
I00
ssS'HICKERSON GARY J'
p80
(dp81
g3
F1700000.0
sg4
F0.0
sg5
F98849.0
sg6
F3.0438010393466963
sg7
I00
ssS'CLINE KENNETH W'
p82
(dp83
g3
F0.0
sg4
F0.0
sg5
F0.0
sg6
F0.0
sg7
I00
ssS'LEWIS RICHARD'
p84
(dp85
g3
F0.0
sg4
F850477.0
sg5
F0.0
sg6
F1.0224948875255624
sg7
I00
ssS'HAYES ROBERT E'
p86
(dp87
g3
F0.0
sg4
F0.0
sg5
F0.0
sg6
F3.10077519379845
sg7
I00
ssS'KOPPER MICHAEL J'
p88
(dp89
g3
F800000.0
sg4
F0.0
sg5
F118134.0
sg6
F0.0
sg7
I01
ssS'LEFF DANIEL P'
p90
(dp91
g3
F1000000.0
sg4
F0.0
sg5
F0.0
sg6
F2.8076256499133447
sg7
I00
ssS'LAVORATO JOHN J'
p92
(dp93
g3
F8000000.0
sg4
F4158995.0
sg5
F49537.0
sg6
F9.538805363673305
sg7
I00
ssS'BERBERIAN DAVID'
p94
(dp95
g3
F0.0
sg4
F1624396.0
sg5
F11892.0
sg6
F0.0
sg7
I00
ssS'DETMERING TIMOTHY J'
p96
(dp97
g3
F425000.0
sg4
F2027865.0
sg5
F52255.0
sg6
F0.0
sg7
I00
ssS'WAKEHAM JOHN'
p98
(dp99
g3
F0.0
sg4
F0.0
sg5
F103773.0
sg6
F0.0
sg7
I00
ssS'POWERS WILLIAM'
p100
(dp101
g3
F0.0
sg4
F0.0
sg5
F0.0
sg6
F0.0
sg7
I00
ssS'GOLD JOSEPH'
p102
(dp103
g3
F750000.0
sg4
F436515.0
sg5
F0.0
sg6
F0.0
sg7
I00
ssS'BANNANTINE JAMES M'
p104
(dp105
g3
F0.0
sg4
F4046157.0
sg5
F56301.0
sg6
F6.5546218487394965
sg7
I00
ssS'DUNCAN JOHN H'
p106
(dp107
g3
F0.0
sg4
F371750.0
sg5
F0.0
sg6
F0.0
sg7
I00
ssS'SHAPIRO RICHARD S'
p108
(dp109
g3
F650000.0
sg4
F607837.0
sg5
F137767.0
sg6
F0.849425568320704
sg7
I00
ssS'SHERRIFF JOHN R'
p110
(dp111
g3
F1500000.0
sg4
F1835558.0
sg5
F0.0
sg6
F1.555352241537054
sg7
I00
ssS'SHELBY REX'
p112
(dp113
g3
F200000.0
sg4
F1624396.0
sg5
F22884.0
sg6
F10.227272727272728
sg7
I01
ssS'LEMAISTRE CHARLES'
p114
(dp115
g3
F0.0
sg4
F412878.0
sg5
F0.0
sg6
F0.0
sg7
I00
ssS'DEFFNER JOSEPH M'
p116
(dp117
g3
F600000.0
sg4
F17378.0
sg5
F41626.0
sg6
F15.101522842639595
sg7
I00
ssS'KISHKILL JOSEPH G'
p118
(dp119
g3
F0.0
sg4
F0.0
sg5
F116335.0
sg6
F0.0
sg7
I00
ssS'WHALLEY LAWRENCE G'
p120
(dp121
g3
F3000000.0
sg4
F3282960.0
sg5
F57838.0
sg6
F3.193916349809886
sg7
I00
ssS'MCCARTY DANNY J'
p122
(dp123
g3
F0.0
sg4
F664375.0
sg5
F0.0
sg6
F1.6383495145631068
sg7
I00
ssS'MCCONNELL MICHAEL S'
p124
(dp125
g3
F1100000.0
sg4
F1623010.0
sg5
F81364.0
sg6
F4.710920770877944
sg7
I00
ssS'DELAINEY DAVID W'
p126
(dp127
g3
F3000000.0
sg4
F2291113.0
sg5
F86174.0
sg6
F10.954235637779941
sg7
I01
ssS'SULLIVAN-SHAKLOVITZ COLLEEN'
p128
(dp129
g3
F100000.0
sg4
F1362375.0
sg5
F0.0
sg6
F0.0
sg7
I00
ssS'WROBEL BRUCE'
p130
(dp131
g3
F0.0
sg4
F139130.0
sg5
F0.0
sg6
F0.0
sg7
I00
ssS'LINDHOLM TOD A'
p132
(dp133
g3
F200000.0
sg4
F2549361.0
sg5
F57727.0
sg6
F0.0
sg7
I00
ssS'MEYER JEROME J'
p134
(dp135
g3
F0.0
sg4
F0.0
sg5
F2151.0
sg6
F0.0
sg7
I00
ssS'LAY KENNETH L'
p136
(dp137
g3
F7000000.0
sg4
F34348384.0
sg5
F99832.0
sg6
F3.225806451612903
sg7
I01
ssS'BUTTS ROBERT H'
p138
(dp139
g3
F750000.0
sg4
F0.0
sg5
F9410.0
sg6
F0.0
sg7
I00
ssS'OLSON CINDY K'
p140
(dp141
g3
F750000.0
sg4
F1637034.0
sg5
F63791.0
sg6
F2.8317152103559873
sg7
I00
ssS'MCDONALD REBECCA'
p142
(dp143
g3
F0.0
sg4
F757301.0
sg5
F0.0
sg6
F6.063947078280044
sg7
I00
ssS'CUMBERLAND MICHAEL S'
p144
(dp145
g3
F325000.0
sg4
F0.0
sg5
F22344.0
sg6
F0.0
sg7
I00
ssS'GAHN ROBERT S'
p146
(dp147
g3
F509870.0
sg4
F83237.0
sg5
F50080.0
sg6
F0.0
sg7
I00
ssS'MCCLELLAN GEORGE'
p148
(dp149
g3
F900000.0
sg4
F506765.0
sg5
F228763.0
sg6
F2.9001673173452316
sg7
I00
ssS'HERMANN ROBERT J'
p150
(dp151
g3
F700000.0
sg4
F187500.0
sg5
F48357.0
sg6
F0.0
sg7
I00
ssS'SCRIMSHAW MATTHEW'
p152
(dp153
g3
F0.0
sg4
F759557.0
sg5
F0.0
sg6
F0.0
sg7
I00
ssS'GATHMANN WILLIAM D'
p154
(dp155
g3
F0.0
sg4
F1753766.0
sg5
F0.0
sg6
F0.0
sg7
I00
ssS'HAEDICKE MARK E'
p156
(dp157
g3
F1150000.0
sg4
F608750.0
sg5
F76169.0
sg6
F4.050420168067228
sg7
I00
ssS'BOWEN JR RAYMOND M'
p158
(dp159
g3
F1350000.0
sg4
F0.0
sg5
F65907.0
sg6
F8.222811671087534
sg7
I01
ssS'GILLIS JOHN'
p160
(dp161
g3
F0.0
sg4
F9803.0
sg5
F0.0
sg6
F0.0
sg7
I00
ssS'FITZGERALD JAY L'
p162
(dp163
g3
F350000.0
sg4
F664461.0
sg5
F23870.0
sg6
F0.9453781512605042
sg7
I00
ssS'MORAN MICHAEL P'
p164
(dp165
g3
F0.0
sg4
F59539.0
sg5
F0.0
sg6
F0.0
sg7
I00
ssS'REDMOND BRIAN L'
p166
(dp167
g3
F0.0
sg4
F7509039.0
sg5
F14689.0
sg6
F13.372093023255813
sg7
I00
ssS'BAZELIDES PHILIP J'
p168
(dp169
g3
F0.0
sg4
F1599641.0
sg5
F0.0
sg6
F0.0
sg7
I00
ssS'BELDEN TIMOTHY N'
p170
(dp171
g3
F5249999.0
sg4
F953136.0
sg5
F17355.0
sg6
F3.9646017699115044
sg7
I01
ssS'DURAN WILLIAM D'
p172
(dp173
g3
F750000.0
sg4
F1451869.0
sg5
F25785.0
sg6
F11.899563318777293
sg7
I00
ssS'THORN TERENCE H'
p174
(dp175
g3
F0.0
sg4
F4452476.0
sg5
F46145.0
sg6
F0.0
sg7
I00
ssS'FASTOW ANDREW S'
p176
(dp177
g3
F1300000.0
sg4
F0.0
sg5
F55921.0
sg6
F0.0
sg7
I01
ssS'FOY JOE'
p178
(dp179
g3
F0.0
sg4
F343434.0
sg5
F0.0
sg6
F0.0
sg7
I00
ssS'CALGER CHRISTOPHER F'
p180
(dp181
g3
F1250000.0
sg4
F0.0
sg5
F35818.0
sg6
F8.169219547775347
sg7
I01
ssS'RICE KENNETH D'
p182
(dp183
g3
F1750000.0
sg4
F19794175.0
sg5
F46950.0
sg6
F4.9837486457204765
sg7
I01
ssS'KAMINSKI WINCENTY J'
p184
(dp185
g3
F400000.0
sg4
F850010.0
sg5
F83585.0
sg6
F1.1172595520421607
sg7
I00
ssS'LOCKHART EUGENE E'
p186
(dp187
g3
F0.0
sg4
F0.0
sg5
F0.0
sg6
F0.0
sg7
I00
ssS'COX DAVID'
p188
(dp189
g3
F800000.0
sg4
F117551.0
sg5
F27861.0
sg6
F2.9629629629629632
sg7
I00
ssS'OVERDYKE JR JERE C'
p190
(dp191
g3
F0.0
sg4
F5266578.0
sg5
F18834.0
sg6
F0.0
sg7
I00
ssS'PEREIRA PAULO V. FERRAZ'
p192
(dp193
g3
F0.0
sg4
F0.0
sg5
F27942.0
sg6
F0.0
sg7
I00
ssS'STABLER FRANK'
p194
(dp195
g3
F500000.0
sg4
F0.0
sg5
F16514.0
sg6
F0.0
sg7
I00
ssS'SKILLING JEFFREY K'
p196
(dp197
g3
F5600000.0
sg4
F19250000.0
sg5
F29336.0
sg6
F3.1593038821954487
sg7
I01
ssS'BLAKE JR. NORMAN P'
p198
(dp199
g3
F0.0
sg4
F0.0
sg5
F1279.0
sg6
F0.0
sg7
I00
ssS'SHERRICK JEFFREY B'
p200
(dp201
g3
F0.0
sg4
F1426469.0
sg5
F0.0
sg6
F8.934169278996865
sg7
I00
ssS'PRENTICE JAMES'
p202
(dp203
g3
F0.0
sg4
F886231.0
sg5
F0.0
sg6
F0.0
sg7
I00
ssS'GRAY RODNEY'
p204
(dp205
g3
F0.0
sg4
F0.0
sg5
F0.0
sg6
F0.0
sg7
I00
ssS'PICKERING MARK R'
p206
(dp207
g3
F300000.0
sg4
F28798.0
sg5
F31653.0
sg6
F0.7253886010362695
sg7
I00
ssS'NOLES JAMES L'
p208
(dp209
g3
F0.0
sg4
F0.0
sg5
F0.0
sg6
F0.0
sg7
I00
ssS'KEAN STEVEN J'
p210
(dp211
g3
F1000000.0
sg4
F2022048.0
sg5
F41953.0
sg6
F2.700763593501768
sg7
I00
ssS'FOWLER PEGGY'
p212
(dp213
g3
F0.0
sg4
F1324578.0
sg5
F0.0
sg6
F0.0
sg7
I00
ssS'WASAFF GEORGE'
p214
(dp215
g3
F325000.0
sg4
F1668260.0
sg5
F0.0
sg6
F6.744186046511628
sg7
I00
ssS'WHITE JR THOMAS E'
p216
(dp217
g3
F450000.0
sg4
F1297049.0
sg5
F81353.0
sg6
F0.0
sg7
I00
ssS'CHRISTODOULOU DIOMEDES'
p218
(dp219
g3
F0.0
sg4
F5127155.0
sg5
F0.0
sg6
F0.0
sg7
I00
ssS'ALLEN PHILLIP K'
p220
(dp221
g3
F4175000.0
sg4
F1729541.0
sg5
F13868.0
sg6
F2.1973710025505198
sg7
I00
ssS'SHARP VICTORIA T'
p222
(dp223
g3
F600000.0
sg4
F281073.0
sg5
F116337.0
sg6
F0.9168704156479218
sg7
I00
ssS'JAEDICKE ROBERT'
p224
(dp225
g3
F0.0
sg4
F431750.0
sg5
F0.0
sg6
F0.0
sg7
I00
ssS'WINOKUR JR. HERBERT S'
p226
(dp227
g3
F0.0
sg4
F0.0
sg5
F1413.0
sg6
F0.0
sg7
I00
ssS'BROWN MICHAEL'
p228
(dp229
g3
F0.0
sg4
F0.0
sg5
F49288.0
sg6
F0.9168303863785201
sg7
I00
ssS'BADUM JAMES P'
p230
(dp231
g3
F0.0
sg4
F257817.0
sg5
F3486.0
sg6
F0.0
sg7
I00
ssS'HUGHES JAMES A'
p232
(dp233
g3
F0.0
sg4
F754966.0
sg5
F0.0
sg6
F5.3120849933598935
sg7
I00
ssS'REYNOLDS LAWRENCE'
p234
(dp235
g3
F100000.0
sg4
F4160672.0
sg5
F8409.0
sg6
F0.0
sg7
I00
ssS'DIMICHELE RICHARD G'
p236
(dp237
g3
F1000000.0
sg4
F8191755.0
sg5
F35812.0
sg6
F0.0
sg7
I00
ssS'BHATNAGAR SANJAY'
p238
(dp239
g3
F0.0
sg4
F2604490.0
sg5
F0.0
sg6
F0.18115942028985507
sg7
I00
ssS'CARTER REBECCA C'
p240
(dp241
g3
F300000.0
sg4
F0.0
sg5
F0.0
sg6
F11.009174311926607
sg7
I00
ssS'BUCHANAN HAROLD G'
p242
(dp243
g3
F500000.0
sg4
F825464.0
sg5
F600.0
sg6
F0.0
sg7
I00
ssS'YEAP SOON'
p244
(dp245
g3
F0.0
sg4
F192758.0
sg5
F55097.0
sg6
F0.0
sg7
I00
ssS'MURRAY JULIA H'
p246
(dp247
g3
F400000.0
sg4
F400478.0
sg5
F57580.0
sg6
F0.581135449262405
sg7
I00
ssS'GARLAND C KEVIN'
p248
(dp249
g3
F850000.0
sg4
F636246.0
sg5
F48405.0
sg6
F14.624505928853754
sg7
I00
ssS'DODSON KEITH'
p250
(dp251
g3
F70000.0
sg4
F0.0
sg5
F28164.0
sg6
F6.842105263157896
sg7
I00
ssS'YEAGER F SCOTT'
p252
(dp253
g3
F0.0
sg4
F8308552.0
sg5
F53947.0
sg6
F0.0
sg7
I01
ssS'HIRKO JOSEPH'
p254
(dp255
g3
F0.0
sg4
F30766064.0
sg5
F77978.0
sg6
F0.0
sg7
I01
ssS'DIETRICH JANET R'
p256
(dp257
g3
F600000.0
sg4
F1550019.0
sg5
F3475.0
sg6
F12.106261859582542
sg7
I00
ssS'DERRICK JR. JAMES V'
p258
(dp259
g3
F800000.0
sg4
F8831913.0
sg5
F51124.0
sg6
F2.7184466019417477
sg7
I00
ssS'FREVERT MARK A'
p260
(dp261
g3
F2000000.0
sg4
F10433518.0
sg5
F86987.0
sg6
F7.524271844660194
sg7
I00
ssS'PAI LOU L'
p262
(dp263
g3
F1000000.0
sg4
F15364167.0
sg5
F32047.0
sg6
F0.0
sg7
I00
ssS'BAY FRANKLIN R'
p264
(dp265
g3
F400000.0
sg4
F0.0
sg5
F129142.0
sg6
F0.0
sg7
I00
ssS'HAYSLETT RODERICK J'
p266
(dp267
g3
F0.0
sg4
F0.0
sg5
F0.0
sg6
F1.9676549865229112
sg7
I00
ssS'FUGH JOHN L'
p268
(dp269
g3
F0.0
sg4
F176378.0
sg5
F0.0
sg6
F0.0
sg7
I00
ssS'FALLON JAMES B'
p270
(dp271
g3
F2500000.0
sg4
F940257.0
sg5
F95924.0
sg6
F4.316939890710382
sg7
I00
ssS'KOENIG MARK E'
p272
(dp273
g3
F700000.0
sg4
F671737.0
sg5
F127017.0
sg6
F2.792607802874743
sg7
I01
ssS'SAVAGE FRANK'
p274
(dp275
g3
F0.0
sg4
F0.0
sg5
F0.0
sg6
F0.0
sg7
I00
ssS'IZZO LAWRENCE L'
p276
(dp277
g3
F0.0
sg4
F2165172.0
sg5
F28093.0
sg6
F6.407766990291262
sg7
I00
ssS'TILNEY ELIZABETH A'
p278
(dp279
g3
F300000.0
sg4
F591250.0
sg5
F0.0
sg6
F4.3841336116910234
sg7
I00
ssS'MARTIN AMANDA K'
p280
(dp281
g3
F0.0
sg4
F2070306.0
sg5
F8211.0
sg6
F0.45662100456621
sg7
I00
ssS'BUY RICHARD B'
p282
(dp283
g3
F900000.0
sg4
F2542813.0
sg5
F0.0
sg6
F4.960664335664336
sg7
I00
ssS'GRAMM WENDY L'
p284
(dp285
g3
F0.0
sg4
F0.0
sg5
F0.0
sg6
F0.0
sg7
I00
ssS'CAUSEY RICHARD A'
p286
(dp287
g3
F1000000.0
sg4
F0.0
sg5
F30674.0
sg6
F3.6063884595569293
sg7
I01
ssS'TAYLOR MITCHELL S'
p288
(dp289
g3
F600000.0
sg4
F3181250.0
sg5
F0.0
sg6
F0.0
sg7
I00
ssS'DONAHUE JR JEFFREY M'
p290
(dp291
g3
F800000.0
sg4
F765920.0
sg5
F96268.0
sg6
F22.435174746335964
sg7
I00
ssS'GLISAN JR BEN F'
p292
(dp293
g3
F600000.0
sg4
F384728.0
sg5
F125978.0
sg6
F6.524184476940382
sg7
I01
ss.